; Function Attrs: nounwind uwtable
define hidden void @b2SplitIslandTask(i32 noundef %0, i32 noundef %1, i32 noundef %2, ptr noundef %3) local_unnamed_addr #0 {
  %5 = tail call i64 @b2GetTicks() #5
  %6 = getelementptr inbounds nuw i8, ptr %3, i64 1528
  %7 = load i32, ptr %6, align 8, !tbaa !148
  tail call void @b2SplitIsland(ptr noundef %3, i32 noundef %7)
  %8 = tail call float @b2GetMilliseconds(i64 noundef %5) #5
  %9 = getelementptr inbounds nuw i8, ptr %3, i64 1656
  %10 = load float, ptr %9, align 4, !tbaa !149
  %11 = fadd float %8, %10
  store float %11, ptr %9, align 4, !tbaa !149
  ret void
}